; Function Attrs: mustprogress nounwind uwtable
define hidden void @_ZN23G1PageBasedVirtualSpace8pretouchEmmP13WorkerThreads(ptr nocapture noundef nonnull readonly align 8 dereferenceable(81) %0, i64 noundef %1, i64 noundef %2, ptr noundef %3) local_unnamed_addr #0 align 2 {
  %5 = load ptr, ptr %0, align 8
  %6 = getelementptr inbounds i8, ptr %0, i64 24
  %7 = load i64, ptr %6, align 8
  %8 = mul i64 %7, %1
  %9 = getelementptr inbounds i8, ptr %5, i64 %8
  %10 = add i64 %2, %1
  %11 = getelementptr inbounds i8, ptr %0, i64 8
  %12 = load ptr, ptr %11, align 8
  %13 = mul i64 %7, %10
  %14 = getelementptr inbounds i8, ptr %5, i64 %13
  %15 = icmp ult ptr %12, %14
  %16 = select i1 %15, ptr %12, ptr %14
  tail call void @_ZN12PretouchTask8pretouchEPKcPcS2_mP13WorkerThreads(ptr noundef nonnull @.str.25, ptr noundef %9, ptr noundef %16, i64 noundef %7, ptr noundef %3) #10
  ret void
}